; Function Attrs: nounwind uwtable
define ptr @l_Lean_throwUnknownConstant___at_Lean_realizeGlobalConstCore___spec__2(ptr noundef %0, ptr noundef %1, ptr noundef %2, ptr noundef %3) local_unnamed_addr #0 {
  %5 = tail call ptr @l_Lean_MessageData_ofConstName(ptr noundef %0, i8 noundef zeroext 0) #3
  %6 = load ptr, ptr @l_Lean_throwUnknownConstant___at_Lean_realizeGlobalConstCore___spec__2___closed__2, align 8, !tbaa !4
  tail call void @lean_inc_heartbeat() #3
  %7 = tail call noalias ptr @mi_malloc_small(i64 noundef 24) #3
  %8 = icmp eq ptr %7, null
  br i1 %8, label %9, label %lean_alloc_ctor.exit

9:                                                ; preds = %4
  tail call void @lean_internal_panic_out_of_memory() #4
  unreachable

lean_alloc_ctor.exit:                             ; preds = %4
  %10 = getelementptr inbounds nuw i8, ptr %7, i64 4
  store i32 1, ptr %7, align 4, !tbaa !8
  store i32 117571608, ptr %10, align 4
  %11 = getelementptr inbounds nuw i8, ptr %7, i64 8
  store ptr %6, ptr %11, align 8, !tbaa !4
  %12 = getelementptr inbounds nuw i8, ptr %7, i64 16
  store ptr %5, ptr %12, align 8, !tbaa !4
  %13 = load ptr, ptr @l_Lean_throwUnknownConstant___at_Lean_realizeGlobalConstCore___spec__2___closed__4, align 8, !tbaa !4
  tail call void @lean_inc_heartbeat() #3
  %14 = tail call noalias ptr @mi_malloc_small(i64 noundef 24) #3
  %15 = icmp eq ptr %14, null
  br i1 %15, label %16, label %lean_alloc_ctor.exit14

16:                                               ; preds = %lean_alloc_ctor.exit
  tail call void @lean_internal_panic_out_of_memory() #4
  unreachable

lean_alloc_ctor.exit14:                           ; preds = %lean_alloc_ctor.exit
  %17 = getelementptr inbounds nuw i8, ptr %14, i64 4
  store i32 1, ptr %14, align 4, !tbaa !8
  store i32 117571608, ptr %17, align 4
  %18 = getelementptr inbounds nuw i8, ptr %14, i64 8
  store ptr %7, ptr %18, align 8, !tbaa !4
  %19 = getelementptr inbounds nuw i8, ptr %14, i64 16
  store ptr %13, ptr %19, align 8, !tbaa !4
  %20 = load ptr, ptr @l_Lean_unknownIdentifierMessageTag, align 8, !tbaa !4
  tail call void @lean_inc_heartbeat() #3
  %21 = tail call noalias ptr @mi_malloc_small(i64 noundef 24) #3
  %22 = icmp eq ptr %21, null
  br i1 %22, label %23, label %l_Lean_throwUnknownIdentifier___at_Lean_realizeGlobalConstCore___spec__3.exit

23:                                               ; preds = %lean_alloc_ctor.exit14
  tail call void @lean_internal_panic_out_of_memory() #4
  unreachable

l_Lean_throwUnknownIdentifier___at_Lean_realizeGlobalConstCore___spec__3.exit: ; preds = %lean_alloc_ctor.exit14
  %24 = getelementptr inbounds nuw i8, ptr %21, i64 4
  store i32 1, ptr %21, align 4, !tbaa !8
  store i32 134348824, ptr %24, align 4
  %25 = getelementptr inbounds nuw i8, ptr %21, i64 8
  store ptr %20, ptr %25, align 8, !tbaa !4
  %26 = getelementptr inbounds nuw i8, ptr %21, i64 16
  store ptr %14, ptr %26, align 8, !tbaa !4
  %27 = tail call ptr @l_Lean_throwError___at_Lean_realizeGlobalConstCore___spec__4(ptr noundef nonnull %21, ptr noundef %1, ptr noundef %2, ptr noundef %3)
  ret ptr %27
}